target datalayout = "e-m:e-p270:32:32-p271:32:32-p272:64:64-i64:64-i128:128-f80:128-n8:16:32:64-S128"
target triple = "x86_64-pc-linux-gnu"

%"struct.LIEF::MachO::ChainedPointerAnalysis::union_pointer_t" = type { i32, %union.anon.8 }
%union.anon.8 = type { %"struct.LIEF::MachO::ChainedPointerAnalysis::dyld_chained_ptr_arm64e_rebase_t" }
%"struct.LIEF::MachO::ChainedPointerAnalysis::dyld_chained_ptr_arm64e_rebase_t" = type { i64 }

; Function Attrs: mustprogress nounwind uwtable
define noundef i32 @_ZNK4LIEF5MachO22ChainedPointerAnalysis15union_pointer_t4nextEv(ptr noundef nonnull align 8 dereferenceable(16) %0) #0 align 2 {
  %2 = alloca i32, align 4
  %3 = alloca ptr, align 8
  store ptr %0, ptr %3, align 8, !tbaa !78
  %4 = load ptr, ptr %3, align 8
  %5 = getelementptr inbounds nuw %"struct.LIEF::MachO::ChainedPointerAnalysis::union_pointer_t", ptr %4, i32 0, i32 0
  %6 = load i32, ptr %5, align 8, !tbaa !72
  switch i32 %6, label %80 [
    i32 1, label %7
    i32 2, label %13
    i32 3, label %19
    i32 4, label %25
    i32 5, label %31
    i32 6, label %37
    i32 7, label %43
    i32 8, label %49
    i32 9, label %55
    i32 10, label %61
    i32 11, label %66
    i32 12, label %71
    i32 13, label %75
    i32 0, label %79
  ]

7:                                                ; preds = %1
  %8 = getelementptr inbounds nuw %"struct.LIEF::MachO::ChainedPointerAnalysis::union_pointer_t", ptr %4, i32 0, i32 1
  %9 = load i64, ptr %8, align 8
  %10 = lshr i64 %9, 51
  %11 = and i64 %10, 2047
  %12 = trunc i64 %11 to i32
  store i32 %12, ptr %2, align 4
  br label %81

13:                                               ; preds = %1
  %14 = getelementptr inbounds nuw %"struct.LIEF::MachO::ChainedPointerAnalysis::union_pointer_t", ptr %4, i32 0, i32 1
  %15 = load i64, ptr %14, align 8
  %16 = lshr i64 %15, 51
  %17 = and i64 %16, 2047
  %18 = trunc i64 %17 to i32
  store i32 %18, ptr %2, align 4
  br label %81

19:                                               ; preds = %1
  %20 = getelementptr inbounds nuw %"struct.LIEF::MachO::ChainedPointerAnalysis::union_pointer_t", ptr %4, i32 0, i32 1
  %21 = load i64, ptr %20, align 8
  %22 = lshr i64 %21, 51
  %23 = and i64 %22, 2047
  %24 = trunc i64 %23 to i32
  store i32 %24, ptr %2, align 4
  br label %81

25:                                               ; preds = %1
  %26 = getelementptr inbounds nuw %"struct.LIEF::MachO::ChainedPointerAnalysis::union_pointer_t", ptr %4, i32 0, i32 1
  %27 = load i64, ptr %26, align 8
  %28 = lshr i64 %27, 51
  %29 = and i64 %28, 2047
  %30 = trunc i64 %29 to i32
  store i32 %30, ptr %2, align 4
  br label %81

31:                                               ; preds = %1
  %32 = getelementptr inbounds nuw %"struct.LIEF::MachO::ChainedPointerAnalysis::union_pointer_t", ptr %4, i32 0, i32 1
  %33 = load i64, ptr %32, align 8
  %34 = lshr i64 %33, 51
  %35 = and i64 %34, 4095
  %36 = trunc i64 %35 to i32
  store i32 %36, ptr %2, align 4
  br label %81

37:                                               ; preds = %1
  %38 = getelementptr inbounds nuw %"struct.LIEF::MachO::ChainedPointerAnalysis::union_pointer_t", ptr %4, i32 0, i32 1
  %39 = load i64, ptr %38, align 8
  %40 = lshr i64 %39, 51
  %41 = and i64 %40, 2047
  %42 = trunc i64 %41 to i32
  store i32 %42, ptr %2, align 4
  br label %81

43:                                               ; preds = %1
  %44 = getelementptr inbounds nuw %"struct.LIEF::MachO::ChainedPointerAnalysis::union_pointer_t", ptr %4, i32 0, i32 1
  %45 = load i64, ptr %44, align 8
  %46 = lshr i64 %45, 51
  %47 = and i64 %46, 2047
  %48 = trunc i64 %47 to i32
  store i32 %48, ptr %2, align 4
  br label %81

49:                                               ; preds = %1
  %50 = getelementptr inbounds nuw %"struct.LIEF::MachO::ChainedPointerAnalysis::union_pointer_t", ptr %4, i32 0, i32 1
  %51 = load i64, ptr %50, align 8
  %52 = lshr i64 %51, 51
  %53 = and i64 %52, 4095
  %54 = trunc i64 %53 to i32
  store i32 %54, ptr %2, align 4
  br label %81

55:                                               ; preds = %1
  %56 = getelementptr inbounds nuw %"struct.LIEF::MachO::ChainedPointerAnalysis::union_pointer_t", ptr %4, i32 0, i32 1
  %57 = load i64, ptr %56, align 8
  %58 = lshr i64 %57, 51
  %59 = and i64 %58, 4095
  %60 = trunc i64 %59 to i32
  store i32 %60, ptr %2, align 4
  br label %81

61:                                               ; preds = %1
  %62 = getelementptr inbounds nuw %"struct.LIEF::MachO::ChainedPointerAnalysis::union_pointer_t", ptr %4, i32 0, i32 1
  %63 = load i32, ptr %62, align 8
  %64 = lshr i32 %63, 26
  %65 = and i32 %64, 31
  store i32 %65, ptr %2, align 4
  br label %81

66:                                               ; preds = %1
  %67 = getelementptr inbounds nuw %"struct.LIEF::MachO::ChainedPointerAnalysis::union_pointer_t", ptr %4, i32 0, i32 1
  %68 = load i32, ptr %67, align 8
  %69 = lshr i32 %68, 26
  %70 = and i32 %69, 31
  store i32 %70, ptr %2, align 4
  br label %81

71:                                               ; preds = %1
  %72 = getelementptr inbounds nuw %"struct.LIEF::MachO::ChainedPointerAnalysis::union_pointer_t", ptr %4, i32 0, i32 1
  %73 = load i32, ptr %72, align 8
  %74 = lshr i32 %73, 30
  store i32 %74, ptr %2, align 4
  br label %81

75:                                               ; preds = %1
  %76 = getelementptr inbounds nuw %"struct.LIEF::MachO::ChainedPointerAnalysis::union_pointer_t", ptr %4, i32 0, i32 1
  %77 = load i32, ptr %76, align 8
  %78 = lshr i32 %77, 26
  store i32 %78, ptr %2, align 4
  br label %81

79:                                               ; preds = %1
  store i32 0, ptr %2, align 4
  br label %81

80:                                               ; preds = %1
  store i32 0, ptr %2, align 4
  br label %81

81:                                               ; preds = %80, %79, %75, %71, %66, %61, %55, %49, %43, %37, %31, %25, %19, %13, %7
  %82 = load i32, ptr %2, align 4
  ret i32 %82
}