; Function Attrs: mustprogress nofree norecurse nosync nounwind willreturn memory(argmem: read) uwtable
define noundef range(i32 0, 4096) i32 @_ZNK4LIEF5MachO22ChainedPointerAnalysis15union_pointer_t4nextEv(ptr noundef nonnull readonly align 8 captures(none) dereferenceable(16) %0) local_unnamed_addr #2 align 2 {
  %2 = load i32, ptr %0, align 8, !tbaa !190
  switch i32 %2, label %75 [
    i32 1, label %3
    i32 2, label %9
    i32 3, label %15
    i32 4, label %21
    i32 5, label %27
    i32 6, label %33
    i32 7, label %39
    i32 8, label %45
    i32 9, label %51
    i32 10, label %57
    i32 11, label %62
    i32 12, label %67
    i32 13, label %71
  ]

3:                                                ; preds = %1
  %4 = getelementptr inbounds nuw i8, ptr %0, i64 8
  %5 = load i64, ptr %4, align 8
  %6 = lshr i64 %5, 51
  %7 = trunc nuw nsw i64 %6 to i32
  %8 = and i32 %7, 2047
  br label %75

9:                                                ; preds = %1
  %10 = getelementptr inbounds nuw i8, ptr %0, i64 8
  %11 = load i64, ptr %10, align 8
  %12 = lshr i64 %11, 51
  %13 = trunc nuw nsw i64 %12 to i32
  %14 = and i32 %13, 2047
  br label %75

15:                                               ; preds = %1
  %16 = getelementptr inbounds nuw i8, ptr %0, i64 8
  %17 = load i64, ptr %16, align 8
  %18 = lshr i64 %17, 51
  %19 = trunc nuw nsw i64 %18 to i32
  %20 = and i32 %19, 2047
  br label %75

21:                                               ; preds = %1
  %22 = getelementptr inbounds nuw i8, ptr %0, i64 8
  %23 = load i64, ptr %22, align 8
  %24 = lshr i64 %23, 51
  %25 = trunc nuw nsw i64 %24 to i32
  %26 = and i32 %25, 2047
  br label %75

27:                                               ; preds = %1
  %28 = getelementptr inbounds nuw i8, ptr %0, i64 8
  %29 = load i64, ptr %28, align 8
  %30 = lshr i64 %29, 51
  %31 = trunc nuw nsw i64 %30 to i32
  %32 = and i32 %31, 4095
  br label %75

33:                                               ; preds = %1
  %34 = getelementptr inbounds nuw i8, ptr %0, i64 8
  %35 = load i64, ptr %34, align 8
  %36 = lshr i64 %35, 51
  %37 = trunc nuw nsw i64 %36 to i32
  %38 = and i32 %37, 2047
  br label %75

39:                                               ; preds = %1
  %40 = getelementptr inbounds nuw i8, ptr %0, i64 8
  %41 = load i64, ptr %40, align 8
  %42 = lshr i64 %41, 51
  %43 = trunc nuw nsw i64 %42 to i32
  %44 = and i32 %43, 2047
  br label %75

45:                                               ; preds = %1
  %46 = getelementptr inbounds nuw i8, ptr %0, i64 8
  %47 = load i64, ptr %46, align 8
  %48 = lshr i64 %47, 51
  %49 = trunc nuw nsw i64 %48 to i32
  %50 = and i32 %49, 4095
  br label %75

51:                                               ; preds = %1
  %52 = getelementptr inbounds nuw i8, ptr %0, i64 8
  %53 = load i64, ptr %52, align 8
  %54 = lshr i64 %53, 51
  %55 = trunc nuw nsw i64 %54 to i32
  %56 = and i32 %55, 4095
  br label %75

57:                                               ; preds = %1
  %58 = getelementptr inbounds nuw i8, ptr %0, i64 8
  %59 = load i32, ptr %58, align 8
  %60 = lshr i32 %59, 26
  %61 = and i32 %60, 31
  br label %75

62:                                               ; preds = %1
  %63 = getelementptr inbounds nuw i8, ptr %0, i64 8
  %64 = load i32, ptr %63, align 8
  %65 = lshr i32 %64, 26
  %66 = and i32 %65, 31
  br label %75

67:                                               ; preds = %1
  %68 = getelementptr inbounds nuw i8, ptr %0, i64 8
  %69 = load i32, ptr %68, align 8
  %70 = lshr i32 %69, 30
  br label %75

71:                                               ; preds = %1
  %72 = getelementptr inbounds nuw i8, ptr %0, i64 8
  %73 = load i32, ptr %72, align 8
  %74 = lshr i32 %73, 26
  br label %75

75:                                               ; preds = %1, %71, %67, %62, %57, %51, %45, %39, %33, %27, %21, %15, %9, %3
  %.0 = phi i32 [ %74, %71 ], [ %70, %67 ], [ %66, %62 ], [ %61, %57 ], [ %56, %51 ], [ %50, %45 ], [ %44, %39 ], [ %38, %33 ], [ %32, %27 ], [ %26, %21 ], [ %20, %15 ], [ %14, %9 ], [ %8, %3 ], [ 0, %1 ]
  ret i32 %.0
}